; ModuleID = '19/1433.c'
source_filename = "19/1433.c"
target datalayout = "e-m:e-p270:32:32-p271:32:32-p272:64:64-i64:64-f80:128-n8:16:32:64-S128"
target triple = "x86_64-pc-linux-gnu"

@.str = private unnamed_addr constant [3 x i8] c"%s\00", align 1
@.str.1 = private unnamed_addr constant [4 x i8] c"%s \00", align 1

; Function Attrs: noinline nounwind uwtable
define dso_local i32 @main() #0 {
  %1 = alloca i32, align 4
  %2 = alloca [101 x i8], align 16
  %3 = alloca [101 x i8], align 16
  %4 = alloca [101 x i8], align 16
  %5 = alloca [101 x [101 x i8]], align 16
  %6 = alloca i32, align 4
  %7 = alloca i32, align 4
  %8 = alloca i32, align 4
  %9 = alloca i32, align 4
  %10 = alloca i32, align 4
  store i32 0, i32* %1, align 4
  %11 = getelementptr inbounds [101 x i8], [101 x i8]* %2, i64 0, i64 0
  %12 = call i32 (i8*, ...) bitcast (i32 (...)* @gets to i32 (i8*, ...)*)(i8* %11)
  store i32 0, i32* %7, align 4
  store i32 0, i32* %8, align 4
  %13 = getelementptr inbounds [101 x i8], [101 x i8]* %2, i64 0, i64 0
  %14 = call i64 @strlen(i8* %13) #4
  %15 = trunc i64 %14 to i32
  store i32 %15, i32* %9, align 4
  store i32 0, i32* %6, align 4
  br label %16

16:                                               ; preds = %50, %0
  %17 = load i32, i32* %6, align 4
  %18 = load i32, i32* %9, align 4
  %19 = icmp slt i32 %17, %18
  br i1 %19, label %20, label %53

20:                                               ; preds = %16
  %21 = load i32, i32* %6, align 4
  %22 = sext i32 %21 to i64
  %23 = getelementptr inbounds [101 x i8], [101 x i8]* %2, i64 0, i64 %22
  %24 = load i8, i8* %23, align 1
  %25 = sext i8 %24 to i32
  %26 = icmp ne i32 %25, 32
  br i1 %26, label %27, label %40

27:                                               ; preds = %20
  %28 = load i32, i32* %6, align 4
  %29 = sext i32 %28 to i64
  %30 = getelementptr inbounds [101 x i8], [101 x i8]* %2, i64 0, i64 %29
  %31 = load i8, i8* %30, align 1
  %32 = load i32, i32* %8, align 4
  %33 = sext i32 %32 to i64
  %34 = getelementptr inbounds [101 x [101 x i8]], [101 x [101 x i8]]* %5, i64 0, i64 %33
  %35 = load i32, i32* %7, align 4
  %36 = sext i32 %35 to i64
  %37 = getelementptr inbounds [101 x i8], [101 x i8]* %34, i64 0, i64 %36
  store i8 %31, i8* %37, align 1
  %38 = load i32, i32* %7, align 4
  %39 = add nsw i32 %38, 1
  store i32 %39, i32* %7, align 4
  br label %49

40:                                               ; preds = %20
  %41 = load i32, i32* %8, align 4
  %42 = sext i32 %41 to i64
  %43 = getelementptr inbounds [101 x [101 x i8]], [101 x [101 x i8]]* %5, i64 0, i64 %42
  %44 = load i32, i32* %7, align 4
  %45 = sext i32 %44 to i64
  %46 = getelementptr inbounds [101 x i8], [101 x i8]* %43, i64 0, i64 %45
  store i8 0, i8* %46, align 1
  %47 = load i32, i32* %8, align 4
  %48 = add nsw i32 %47, 1
  store i32 %48, i32* %8, align 4
  store i32 0, i32* %7, align 4
  br label %49

49:                                               ; preds = %40, %27
  br label %50

50:                                               ; preds = %49
  %51 = load i32, i32* %6, align 4
  %52 = add nsw i32 %51, 1
  store i32 %52, i32* %6, align 4
  br label %16

53:                                               ; preds = %16
  %54 = load i32, i32* %8, align 4
  %55 = sext i32 %54 to i64
  %56 = getelementptr inbounds [101 x [101 x i8]], [101 x [101 x i8]]* %5, i64 0, i64 %55
  %57 = load i32, i32* %7, align 4
  %58 = sext i32 %57 to i64
  %59 = getelementptr inbounds [101 x i8], [101 x i8]* %56, i64 0, i64 %58
  store i8 0, i8* %59, align 1
  %60 = getelementptr inbounds [101 x i8], [101 x i8]* %3, i64 0, i64 0
  %61 = call i32 (i8*, ...) @__isoc99_scanf(i8* getelementptr inbounds ([3 x i8], [3 x i8]* @.str, i64 0, i64 0), i8* %60)
  %62 = getelementptr inbounds [101 x i8], [101 x i8]* %4, i64 0, i64 0
  %63 = call i32 (i8*, ...) @__isoc99_scanf(i8* getelementptr inbounds ([3 x i8], [3 x i8]* @.str, i64 0, i64 0), i8* %62)
  store i32 0, i32* %6, align 4
  br label %64

64:                                               ; preds = %85, %53
  %65 = load i32, i32* %6, align 4
  %66 = load i32, i32* %8, align 4
  %67 = add nsw i32 %66, 1
  %68 = icmp slt i32 %65, %67
  br i1 %68, label %69, label %88

69:                                               ; preds = %64
  %70 = load i32, i32* %6, align 4
  %71 = sext i32 %70 to i64
  %72 = getelementptr inbounds [101 x [101 x i8]], [101 x [101 x i8]]* %5, i64 0, i64 %71
  %73 = getelementptr inbounds [101 x i8], [101 x i8]* %72, i64 0, i64 0
  %74 = getelementptr inbounds [101 x i8], [101 x i8]* %3, i64 0, i64 0
  %75 = call i32 @strcmp(i8* %73, i8* %74) #4
  %76 = icmp eq i32 %75, 0
  br i1 %76, label %77, label %84

77:                                               ; preds = %69
  %78 = load i32, i32* %6, align 4
  %79 = sext i32 %78 to i64
  %80 = getelementptr inbounds [101 x [101 x i8]], [101 x [101 x i8]]* %5, i64 0, i64 %79
  %81 = getelementptr inbounds [101 x i8], [101 x i8]* %80, i64 0, i64 0
  %82 = getelementptr inbounds [101 x i8], [101 x i8]* %4, i64 0, i64 0
  %83 = call i8* @strcpy(i8* %81, i8* %82) #5
  br label %84

84:                                               ; preds = %77, %69
  br label %85

85:                                               ; preds = %84
  %86 = load i32, i32* %6, align 4
  %87 = add nsw i32 %86, 1
  store i32 %87, i32* %6, align 4
  br label %64

88:                                               ; preds = %64
  store i32 0, i32* %6, align 4
  br label %89

89:                                               ; preds = %99, %88
  %90 = load i32, i32* %6, align 4
  %91 = load i32, i32* %8, align 4
  %92 = icmp slt i32 %90, %91
  br i1 %92, label %93, label %102

93:                                               ; preds = %89
  %94 = load i32, i32* %6, align 4
  %95 = sext i32 %94 to i64
  %96 = getelementptr inbounds [101 x [101 x i8]], [101 x [101 x i8]]* %5, i64 0, i64 %95
  %97 = getelementptr inbounds [101 x i8], [101 x i8]* %96, i64 0, i64 0
  %98 = call i32 (i8*, ...) @printf(i8* getelementptr inbounds ([4 x i8], [4 x i8]* @.str.1, i64 0, i64 0), i8* %97)
  br label %99

99:                                               ; preds = %93
  %100 = load i32, i32* %6, align 4
  %101 = add nsw i32 %100, 1
  store i32 %101, i32* %6, align 4
  br label %89

102:                                              ; preds = %89
  %103 = load i32, i32* %8, align 4
  %104 = sext i32 %103 to i64
  %105 = getelementptr inbounds [101 x [101 x i8]], [101 x [101 x i8]]* %5, i64 0, i64 %104
  %106 = getelementptr inbounds [101 x i8], [101 x i8]* %105, i64 0, i64 0
  %107 = call i32 (i8*, ...) @printf(i8* getelementptr inbounds ([3 x i8], [3 x i8]* @.str, i64 0, i64 0), i8* %106)
  ret i32 0
}

declare dso_local i32 @gets(...) #1

; Function Attrs: nounwind readonly
declare dso_local i64 @strlen(i8*) #2

declare dso_local i32 @__isoc99_scanf(i8*, ...) #1

; Function Attrs: nounwind readonly
declare dso_local i32 @strcmp(i8*, i8*) #2

; Function Attrs: nounwind
declare dso_local i8* @strcpy(i8*, i8*) #3

declare dso_local i32 @printf(i8*, ...) #1


!llvm.module.flags = !{!0}
!llvm.ident = !{!1}

!0 = !{i32 1, !"wchar_size", i32 4}
!1 = !{!"clang version 10.0.0-4ubuntu1 "}
